target datalayout = "e-m:e-p270:32:32-p271:32:32-p272:64:64-i64:64-i128:128-f80:128-n8:16:32:64-S128"
target triple = "x86_64-pc-linux-gnu"

%struct.H5R_ref_priv_t = type { %union.anon, i64, i32, i8, i8, i8 }
%union.anon = type { %struct.H5R_ref_priv_reg_t }
%struct.H5R_ref_priv_reg_t = type { %struct.H5R_ref_priv_obj_t, ptr }
%struct.H5R_ref_priv_obj_t = type { %struct.H5O_token_t, ptr }
%struct.H5O_token_t = type { [16 x i8] }

@H5R_init_g = global i8 0, align 1
@H5_libterm_g = external global i8, align 1
@.str = private unnamed_addr constant [100 x i8] c"generated/home/dtcxzyw/WorkSpace/Projects/compilers/llvm-opt-benchmark/bench/hdf5/hdf5/src/H5Rint.c\00", align 1
@H5E_REFERENCE_g = external global i64, align 8
@H5E_ARGS_g = external global i64, align 8
@__func__.H5R__get_file_name = private unnamed_addr constant [19 x i8] c"H5R__get_file_name\00", align 1
@.str.26 = private unnamed_addr constant [41 x i8] c"no filename available for that reference\00", align 1

; Function Attrs: nounwind uwtable
define i64 @H5R__get_file_name(ptr noundef %0, ptr noundef %1, i64 noundef %2) #0 {
  %4 = alloca ptr, align 8
  %5 = alloca ptr, align 8
  %6 = alloca i64, align 8
  %7 = alloca i64, align 8
  %8 = alloca i64, align 8
  %9 = alloca i8, align 1
  store ptr %0, ptr %4, align 8, !tbaa !14
  store ptr %1, ptr %5, align 8, !tbaa !24
  store i64 %2, ptr %6, align 8, !tbaa !12
  call void @llvm.lifetime.start.p0(i64 8, ptr %7) #9
  call void @llvm.lifetime.start.p0(i64 8, ptr %8) #9
  store i64 -1, ptr %8, align 8, !tbaa !12
  call void @llvm.lifetime.start.p0(i64 1, ptr %9) #9
  store i8 0, ptr %9, align 1, !tbaa !3
  %10 = load i8, ptr @H5R_init_g, align 1, !tbaa !3, !range !7, !noundef !8
  %11 = trunc i8 %10 to i1
  br i1 %11, label %16, label %12

12:                                               ; preds = %3
  %13 = load i8, ptr @H5_libterm_g, align 1, !tbaa !3, !range !7, !noundef !8
  %14 = trunc i8 %13 to i1
  %15 = xor i1 %14, true
  br label %16

16:                                               ; preds = %12, %3
  %17 = phi i1 [ true, %3 ], [ %15, %12 ]
  %18 = xor i1 %17, true
  %19 = xor i1 %18, true
  %20 = zext i1 %19 to i32
  %21 = sext i32 %20 to i64
  %22 = call i64 @llvm.expect.i64(i64 %21, i64 1)
  %23 = icmp ne i64 %22, 0
  br i1 %23, label %24, label %82

24:                                               ; preds = %16
  %25 = load ptr, ptr %4, align 8, !tbaa !14
  %26 = getelementptr inbounds nuw %struct.H5R_ref_priv_t, ptr %25, i32 0, i32 0
  %27 = getelementptr inbounds nuw %struct.H5R_ref_priv_obj_t, ptr %26, i32 0, i32 1
  %28 = load ptr, ptr %27, align 8, !tbaa !18
  %29 = icmp ne ptr %28, null
  br i1 %29, label %49, label %30

30:                                               ; preds = %24
  br label %31

31:                                               ; preds = %30
  br label %32

32:                                               ; preds = %31
  br label %33

33:                                               ; preds = %32
  %34 = load i64, ptr @H5E_REFERENCE_g, align 8, !tbaa !12
  %35 = load i64, ptr @H5E_ARGS_g, align 8, !tbaa !12
  %36 = call i32 (ptr, ptr, i32, i64, i64, ptr, ...) @H5E_printf_stack(ptr noundef @.str, ptr noundef @__func__.H5R__get_file_name, i32 noundef 792, i64 noundef %34, i64 noundef %35, ptr noundef @.str.26)
  br label %37

37:                                               ; preds = %33
  br label %38

38:                                               ; preds = %37
  store i8 1, ptr %9, align 1, !tbaa !3
  %39 = load i8, ptr %9, align 1, !tbaa !3, !range !7, !noundef !8
  %40 = trunc i8 %39 to i1
  %41 = zext i1 %40 to i8
  store i8 %41, ptr %9, align 1, !tbaa !3
  br label %42

42:                                               ; preds = %38
  br label %43

43:                                               ; preds = %42
  br label %44

44:                                               ; preds = %43
  store i64 -1, ptr %8, align 8, !tbaa !12
  br label %81

45:                                               ; No predecessors!
  br label %46

46:                                               ; preds = %45
  br label %47

47:                                               ; preds = %46
  br label %48

48:                                               ; preds = %47
  br label %49

49:                                               ; preds = %48, %24
  %50 = load ptr, ptr %4, align 8, !tbaa !14
  %51 = getelementptr inbounds nuw %struct.H5R_ref_priv_t, ptr %50, i32 0, i32 0
  %52 = getelementptr inbounds nuw %struct.H5R_ref_priv_obj_t, ptr %51, i32 0, i32 1
  %53 = load ptr, ptr %52, align 8, !tbaa !18
  %54 = call i64 @strlen(ptr noundef %53) #10
  store i64 %54, ptr %7, align 8, !tbaa !12
  %55 = load ptr, ptr %5, align 8, !tbaa !24
  %56 = icmp ne ptr %55, null
  br i1 %56, label %57, label %78

57:                                               ; preds = %49
  %58 = load i64, ptr %7, align 8, !tbaa !12
  %59 = load i64, ptr %6, align 8, !tbaa !12
  %60 = sub i64 %59, 1
  %61 = icmp ult i64 %58, %60
  br i1 %61, label %62, label %64

62:                                               ; preds = %57
  %63 = load i64, ptr %7, align 8, !tbaa !12
  br label %67

64:                                               ; preds = %57
  %65 = load i64, ptr %6, align 8, !tbaa !12
  %66 = sub i64 %65, 1
  br label %67

67:                                               ; preds = %64, %62
  %68 = phi i64 [ %63, %62 ], [ %66, %64 ]
  store i64 %68, ptr %7, align 8, !tbaa !12
  %69 = load ptr, ptr %5, align 8, !tbaa !24
  %70 = load ptr, ptr %4, align 8, !tbaa !14
  %71 = getelementptr inbounds nuw %struct.H5R_ref_priv_t, ptr %70, i32 0, i32 0
  %72 = getelementptr inbounds nuw %struct.H5R_ref_priv_obj_t, ptr %71, i32 0, i32 1
  %73 = load ptr, ptr %72, align 8, !tbaa !18
  %74 = load i64, ptr %7, align 8, !tbaa !12
  call void @llvm.memcpy.p0.p0.i64(ptr align 1 %69, ptr align 1 %73, i64 %74, i1 false)
  %75 = load ptr, ptr %5, align 8, !tbaa !24
  %76 = load i64, ptr %7, align 8, !tbaa !12
  %77 = getelementptr inbounds nuw i8, ptr %75, i64 %76
  store i8 0, ptr %77, align 1, !tbaa !18
  br label %78

78:                                               ; preds = %67, %49
  %79 = load i64, ptr %7, align 8, !tbaa !12
  %80 = add i64 %79, 1
  store i64 %80, ptr %8, align 8, !tbaa !12
  br label %81

81:                                               ; preds = %78, %44
  br label %82

82:                                               ; preds = %81, %16
  %83 = load i64, ptr %8, align 8, !tbaa !12
  call void @llvm.lifetime.end.p0(i64 1, ptr %9) #9
  call void @llvm.lifetime.end.p0(i64 8, ptr %8) #9
  call void @llvm.lifetime.end.p0(i64 8, ptr %7) #9
  ret i64 %83
}