; Function Attrs: nounwind uwtable
define i64 @H5R__get_file_name(ptr noundef readonly captures(none) %0, ptr noundef writeonly captures(address_is_null) %1, i64 noundef %2) local_unnamed_addr #1 {
  %4 = load i8, ptr @H5R_init_g, align 1, !tbaa !3, !range !7, !noundef !8
  %5 = trunc nuw i8 %4 to i1
  %6 = load i8, ptr @H5_libterm_g, align 1, !range !7
  %7 = trunc nuw i8 %6 to i1
  %8 = xor i1 %7, true
  %9 = select i1 %5, i1 true, i1 %8
  br i1 %9, label %10, label %25, !prof !9

10:                                               ; preds = %3
  %11 = getelementptr inbounds nuw i8, ptr %0, i64 16
  %12 = load ptr, ptr %11, align 8, !tbaa !10
  %.not = icmp eq ptr %12, null
  br i1 %.not, label %13, label %17

13:                                               ; preds = %10
  %14 = load i64, ptr @H5E_REFERENCE_g, align 8, !tbaa !17
  %15 = load i64, ptr @H5E_ARGS_g, align 8, !tbaa !17
  %16 = tail call i32 (ptr, ptr, i32, i64, i64, ptr, ...) @H5E_printf_stack(ptr noundef nonnull @.str, ptr noundef nonnull @__func__.H5R__get_file_name, i32 noundef 792, i64 noundef %14, i64 noundef %15, ptr noundef nonnull @.str.26) #15
  br label %25

17:                                               ; preds = %10
  %18 = tail call i64 @strlen(ptr noundef nonnull dereferenceable(1) %12) #16
  %.not17 = icmp eq ptr %1, null
  br i1 %.not17, label %23, label %19

19:                                               ; preds = %17
  %20 = add i64 %2, -1
  %21 = tail call i64 @llvm.umin.i64(i64 %18, i64 %20)
  tail call void @llvm.memcpy.p0.p0.i64(ptr nonnull align 1 %1, ptr nonnull align 1 %12, i64 %21, i1 false)
  %22 = getelementptr inbounds nuw i8, ptr %1, i64 %21
  store i8 0, ptr %22, align 1, !tbaa !10
  br label %23

23:                                               ; preds = %19, %17
  %.014 = phi i64 [ %21, %19 ], [ %18, %17 ]
  %24 = add i64 %.014, 1
  br label %25

25:                                               ; preds = %13, %23, %3
  %.0 = phi i64 [ %24, %23 ], [ -1, %13 ], [ -1, %3 ]
  ret i64 %.0
}